; Function Attrs: mustprogress nounwind uwtable
define noundef ptr @_ZN7glslang16HlslParseContext17handleReturnValueERKNS_10TSourceLocEPNS_12TIntermTypedE(ptr noundef nonnull align 8 dereferenceable(2489) %0, ptr noundef nonnull align 8 dereferenceable(24) %1, ptr noundef %2) local_unnamed_addr #0 align 2 {
  %4 = getelementptr inbounds i8, ptr %0, i64 304
  store i8 1, ptr %4, align 8
  %5 = getelementptr inbounds i8, ptr %0, i64 296
  %6 = load ptr, ptr %5, align 8
  %7 = load ptr, ptr %6, align 8
  %8 = getelementptr inbounds i8, ptr %7, i64 56
  %9 = load ptr, ptr %8, align 8
  %10 = tail call noundef i32 %9(ptr noundef nonnull align 8 dereferenceable(152) %6) #24
  %11 = icmp eq i32 %10, 0
  br i1 %11, label %12, label %19

12:                                               ; preds = %3
  %13 = load ptr, ptr %0, align 8
  %14 = getelementptr inbounds i8, ptr %13, i64 344
  %15 = load ptr, ptr %14, align 8
  tail call void (ptr, ptr, ptr, ptr, ptr, ...) %15(ptr noundef nonnull align 8 dereferenceable(1280) %0, ptr noundef nonnull align 8 dereferenceable(24) %1, ptr noundef nonnull @.str.114, ptr noundef nonnull @.str.115, ptr noundef nonnull @.str.5) #24
  %16 = getelementptr inbounds i8, ptr %0, i64 56
  %17 = load ptr, ptr %16, align 8
  %18 = tail call noundef ptr @_ZN7glslang13TIntermediate9addBranchENS_9TOperatorERKNS_10TSourceLocE(ptr noundef nonnull align 8 dereferenceable(2024) %17, i32 noundef 469, ptr noundef nonnull align 8 dereferenceable(24) %1) #24
  br label %56

19:                                               ; preds = %3
  %20 = load ptr, ptr %5, align 8
  %21 = load ptr, ptr %2, align 8
  %22 = getelementptr inbounds i8, ptr %21, i64 240
  %23 = load ptr, ptr %22, align 8
  %24 = tail call noundef nonnull align 8 dereferenceable(152) ptr %23(ptr noundef nonnull align 8 dereferenceable(184) %2) #24
  %25 = tail call noundef zeroext i1 @_ZNK7glslang5TTypeneERKS0_(ptr noundef nonnull align 8 dereferenceable(152) %20, ptr noundef nonnull align 8 dereferenceable(152) %24)
  br i1 %25, label %26, label %52

26:                                               ; preds = %19
  %27 = getelementptr inbounds i8, ptr %0, i64 56
  %28 = load ptr, ptr %27, align 8
  %29 = load ptr, ptr %5, align 8
  %30 = tail call noundef ptr @_ZN7glslang13TIntermediate13addConversionENS_9TOperatorERKNS_5TTypeEPNS_12TIntermTypedE(ptr noundef nonnull align 8 dereferenceable(2024) %28, i32 noundef 469, ptr noundef nonnull align 8 dereferenceable(152) %29, ptr noundef nonnull %2) #24
  %.not = icmp eq ptr %30, null
  br i1 %.not, label %.thread, label %31

31:                                               ; preds = %26
  %32 = load ptr, ptr %5, align 8
  %33 = load ptr, ptr %30, align 8
  %34 = getelementptr inbounds i8, ptr %33, i64 240
  %35 = load ptr, ptr %34, align 8
  %36 = tail call noundef nonnull align 8 dereferenceable(152) ptr %35(ptr noundef nonnull align 8 dereferenceable(184) %30) #24
  %37 = tail call noundef zeroext i1 @_ZNK7glslang5TTypeneERKS0_(ptr noundef nonnull align 8 dereferenceable(152) %32, ptr noundef nonnull align 8 dereferenceable(152) %36)
  br i1 %37, label %38, label %.thread20

38:                                               ; preds = %31
  %39 = load ptr, ptr %27, align 8
  %40 = load ptr, ptr %5, align 8
  %41 = tail call noundef ptr @_ZN7glslang13TIntermediate21addUniShapeConversionENS_9TOperatorERKNS_5TTypeEPNS_12TIntermTypedE(ptr noundef nonnull align 8 dereferenceable(2024) %39, i32 noundef 469, ptr noundef nonnull align 8 dereferenceable(152) %40, ptr noundef nonnull %30) #24
  %42 = icmp eq ptr %41, null
  br i1 %42, label %.thread, label %.thread20

.thread20:                                        ; preds = %31, %38
  %.022 = phi ptr [ %41, %38 ], [ %30, %31 ]
  %43 = load ptr, ptr %5, align 8
  %44 = load ptr, ptr %.022, align 8
  %45 = getelementptr inbounds i8, ptr %44, i64 240
  %46 = load ptr, ptr %45, align 8
  %47 = tail call noundef nonnull align 8 dereferenceable(152) ptr %46(ptr noundef nonnull align 8 dereferenceable(184) %.022) #24
  %48 = tail call noundef zeroext i1 @_ZNK7glslang5TTypeneERKS0_(ptr noundef nonnull align 8 dereferenceable(152) %43, ptr noundef nonnull align 8 dereferenceable(152) %47)
  br i1 %48, label %.thread, label %52

.thread:                                          ; preds = %26, %.thread20, %38
  %.019 = phi ptr [ %.022, %.thread20 ], [ null, %38 ], [ null, %26 ]
  %49 = load ptr, ptr %0, align 8
  %50 = getelementptr inbounds i8, ptr %49, i64 344
  %51 = load ptr, ptr %50, align 8
  tail call void (ptr, ptr, ptr, ptr, ptr, ...) %51(ptr noundef nonnull align 8 dereferenceable(1280) %0, ptr noundef nonnull align 8 dereferenceable(24) %1, ptr noundef nonnull @.str.116, ptr noundef nonnull @.str.115, ptr noundef nonnull @.str.5) #24
  br label %56

52:                                               ; preds = %19, %.thread20
  %.1 = phi ptr [ %.022, %.thread20 ], [ %2, %19 ]
  %53 = getelementptr inbounds i8, ptr %0, i64 56
  %54 = load ptr, ptr %53, align 8
  %55 = tail call noundef ptr @_ZN7glslang13TIntermediate9addBranchENS_9TOperatorEPNS_12TIntermTypedERKNS_10TSourceLocE(ptr noundef nonnull align 8 dereferenceable(2024) %54, i32 noundef 469, ptr noundef nonnull %.1, ptr noundef nonnull align 8 dereferenceable(24) %1) #24
  br label %56

56:                                               ; preds = %52, %.thread, %12
  %.015 = phi ptr [ %18, %12 ], [ %.019, %.thread ], [ %55, %52 ]
  ret ptr %.015
}